	.file	"water_balance.f90"
	.text
	.globl	___water_balance_MOD_wbm
	.def	___water_balance_MOD_wbm;	.scl	2;	.type	32;	.endef
___water_balance_MOD_wbm:
LFB0:
	.cfi_startproc
	pushl	%ebp
	.cfi_def_cfa_offset 8
	.cfi_offset 5, -8
	movl	%esp, %ebp
	.cfi_def_cfa_register 5
	pushl	%edi
	pushl	%ebx
	subl	$3568, %esp
	.cfi_offset 7, -12
	.cfi_offset 3, -16
	movl	48(%ebp), %eax
	movl	%eax, 4(%esp)
	movl	16(%ebp), %eax
	movl	%eax, (%esp)
	call	___water_MOD_soil_temp_sub
	leal	-348(%ebp), %eax
	movl	32(%ebp), %edx
	movl	(%edx), %ecx
	movl	%ecx, (%eax)
	movl	4(%edx), %ecx
	movl	%ecx, 4(%eax)
	movl	8(%edx), %ecx
	movl	%ecx, 8(%eax)
	movl	12(%edx), %ecx
	movl	%ecx, 12(%eax)
	movl	16(%edx), %ecx
	movl	%ecx, 16(%eax)
	movl	20(%edx), %ecx
	movl	%ecx, 20(%eax)
	movl	24(%edx), %ecx
	movl	%ecx, 24(%eax)
	movl	28(%edx), %ecx
	movl	%ecx, 28(%eax)
	movl	32(%edx), %ecx
	movl	%ecx, 32(%eax)
	movl	36(%edx), %ecx
	movl	%ecx, 36(%eax)
	movl	40(%edx), %ecx
	movl	%ecx, 40(%eax)
	movl	44(%edx), %edx
	movl	%edx, 44(%eax)
	leal	-156(%ebp), %eax
	movl	36(%ebp), %edx
	movl	(%edx), %ecx
	movl	%ecx, (%eax)
	movl	4(%edx), %ecx
	movl	%ecx, 4(%eax)
	movl	8(%edx), %ecx
	movl	%ecx, 8(%eax)
	movl	12(%edx), %ecx
	movl	%ecx, 12(%eax)
	movl	16(%edx), %ecx
	movl	%ecx, 16(%eax)
	movl	20(%edx), %ecx
	movl	%ecx, 20(%eax)
	movl	24(%edx), %ecx
	movl	%ecx, 24(%eax)
	movl	28(%edx), %ecx
	movl	%ecx, 28(%eax)
	movl	32(%edx), %ecx
	movl	%ecx, 32(%eax)
	movl	36(%edx), %ecx
	movl	%ecx, 36(%eax)
	movl	40(%edx), %ecx
	movl	%ecx, 40(%eax)
	movl	44(%edx), %edx
	movl	%edx, 44(%eax)
	leal	-252(%ebp), %eax
	movl	40(%ebp), %edx
	movl	(%edx), %ecx
	movl	%ecx, (%eax)
	movl	4(%edx), %ecx
	movl	%ecx, 4(%eax)
	movl	8(%edx), %ecx
	movl	%ecx, 8(%eax)
	movl	12(%edx), %ecx
	movl	%ecx, 12(%eax)
	movl	16(%edx), %ecx
	movl	%ecx, 16(%eax)
	movl	20(%edx), %ecx
	movl	%ecx, 20(%eax)
	movl	24(%edx), %ecx
	movl	%ecx, 24(%eax)
	movl	28(%edx), %ecx
	movl	%ecx, 28(%eax)
	movl	32(%edx), %ecx
	movl	%ecx, 32(%eax)
	movl	36(%edx), %ecx
	movl	%ecx, 36(%eax)
	movl	40(%edx), %ecx
	movl	%ecx, 40(%eax)
	movl	44(%edx), %edx
	movl	%edx, 44(%eax)
	movl	$1, %eax
L3:
	cmpl	$12, %eax
	jg	L2
	leal	-1(%eax), %edx
	flds	LC0
	fstps	-1560(%ebp,%edx,4)
	addl	$1, %eax
	jmp	L3
L2:
	movl	$1, %eax
L5:
	cmpl	$12, %eax
	jg	L4
	leal	-1(%eax), %ecx
	leal	-1(%eax), %edx
	flds	-1560(%ebp,%edx,4)
	flds	LC1
	fmulp	%st, %st(1)
	movl	120(%ebp), %edx
	fstps	(%edx,%ecx,4)
	addl	$1, %eax
	jmp	L5
L4:
	movl	104(%ebp), %eax
	movl	$48, %ecx
	movl	$0, %ebx
	movl	%ebx, (%eax)
	movl	%ebx, -4(%eax,%ecx)
	leal	4(%eax), %edx
	andl	$-4, %edx
	subl	%edx, %eax
	addl	%eax, %ecx
	andl	$-4, %ecx
	shrl	$2, %ecx
	movl	%edx, %edi
	movl	%ebx, %eax
	rep stosl
	movl	108(%ebp), %eax
	movl	$48, %ecx
	movl	$0, %ebx
	movl	%ebx, (%eax)
	movl	%ebx, -4(%eax,%ecx)
	leal	4(%eax), %edx
	andl	$-4, %edx
	subl	%edx, %eax
	addl	%eax, %ecx
	andl	$-4, %ecx
	shrl	$2, %ecx
	movl	%edx, %edi
	movl	%ebx, %eax
	rep stosl
	movl	112(%ebp), %eax
	movl	$48, %ecx
	movl	$0, %ebx
	movl	%ebx, (%eax)
	movl	%ebx, -4(%eax,%ecx)
	leal	4(%eax), %edx
	andl	$-4, %edx
	subl	%edx, %eax
	addl	%eax, %ecx
	andl	$-4, %ecx
	shrl	$2, %ecx
	movl	%edx, %edi
	movl	%ebx, %eax
	rep stosl
	movl	116(%ebp), %eax
	movl	$48, %ecx
	movl	$0, %ebx
	movl	%ebx, (%eax)
	movl	%ebx, -4(%eax,%ecx)
	leal	4(%eax), %edx
	andl	$-4, %edx
	subl	%edx, %eax
	addl	%eax, %ecx
	andl	$-4, %ecx
	shrl	$2, %ecx
	movl	%edx, %edi
	movl	%ebx, %eax
	rep stosl
	movl	$1, %eax
L7:
	cmpl	$12, %eax
	jg	L6
	leal	-1(%eax), %edx
	fld1
	fchs
	fstps	-3260(%ebp,%edx,4)
	addl	$1, %eax
	jmp	L7
L6:
	movl	44(%ebp), %eax
	movl	$48, %ecx
	movl	$0, %ebx
	movl	%ebx, (%eax)
	movl	%ebx, -4(%eax,%ecx)
	leal	4(%eax), %edx
	andl	$-4, %edx
	subl	%edx, %eax
	addl	%eax, %ecx
	andl	$-4, %ecx
	shrl	$2, %ecx
	movl	%edx, %edi
	movl	%ebx, %eax
	rep stosl
	movl	52(%ebp), %eax
	movl	$576, %ecx
	movl	$0, %ebx
	movl	%ebx, (%eax)
	movl	%ebx, -4(%eax,%ecx)
	leal	4(%eax), %edx
	andl	$-4, %edx
	subl	%edx, %eax
	addl	%eax, %ecx
	andl	$-4, %ecx
	shrl	$2, %ecx
	movl	%edx, %edi
	movl	%ebx, %eax
	rep stosl
	movl	56(%ebp), %eax
	movl	$576, %ecx
	movl	$0, %ebx
	movl	%ebx, (%eax)
	movl	%ebx, -4(%eax,%ecx)
	leal	4(%eax), %edx
	andl	$-4, %edx
	subl	%edx, %eax
	addl	%eax, %ecx
	andl	$-4, %ecx
	shrl	$2, %ecx
	movl	%edx, %edi
	movl	%ebx, %eax
	rep stosl
	movl	60(%ebp), %eax
	movl	$576, %ecx
	movl	$0, %ebx
	movl	%ebx, (%eax)
	movl	%ebx, -4(%eax,%ecx)
	leal	4(%eax), %edx
	andl	$-4, %edx
	subl	%edx, %eax
	addl	%eax, %ecx
	andl	$-4, %ecx
	shrl	$2, %ecx
	movl	%edx, %edi
	movl	%ebx, %eax
	rep stosl
	movl	64(%ebp), %eax
	movl	$576, %ecx
	movl	$0, %ebx
	movl	%ebx, (%eax)
	movl	%ebx, -4(%eax,%ecx)
	leal	4(%eax), %edx
	andl	$-4, %edx
	subl	%edx, %eax
	addl	%eax, %ecx
	andl	$-4, %ecx
	shrl	$2, %ecx
	movl	%edx, %edi
	movl	%ebx, %eax
	rep stosl
	movl	68(%ebp), %eax
	movl	$576, %ecx
	movl	$0, %ebx
	movl	%ebx, (%eax)
	movl	%ebx, -4(%eax,%ecx)
	leal	4(%eax), %edx
	andl	$-4, %edx
	subl	%edx, %eax
	addl	%eax, %ecx
	andl	$-4, %ecx
	shrl	$2, %ecx
	movl	%edx, %edi
	movl	%ebx, %eax
	rep stosl
	movl	72(%ebp), %eax
	movl	$576, %ecx
	movl	$0, %ebx
	movl	%ebx, (%eax)
	movl	%ebx, -4(%eax,%ecx)
	leal	4(%eax), %edx
	andl	$-4, %edx
	subl	%edx, %eax
	addl	%eax, %ecx
	andl	$-4, %ecx
	shrl	$2, %ecx
	movl	%edx, %edi
	movl	%ebx, %eax
	rep stosl
	movl	76(%ebp), %eax
	movl	$576, %ecx
	movl	$0, %ebx
	movl	%ebx, (%eax)
	movl	%ebx, -4(%eax,%ecx)
	leal	4(%eax), %edx
	andl	$-4, %edx
	subl	%edx, %eax
	addl	%eax, %ecx
	andl	$-4, %ecx
	shrl	$2, %ecx
	movl	%edx, %edi
	movl	%ebx, %eax
	rep stosl
	movl	80(%ebp), %eax
	movl	$576, %ecx
	movl	$0, %ebx
	movl	%ebx, (%eax)
	movl	%ebx, -4(%eax,%ecx)
	leal	4(%eax), %edx
	andl	$-4, %edx
	subl	%edx, %eax
	addl	%eax, %ecx
	andl	$-4, %ecx
	shrl	$2, %ecx
	movl	%edx, %edi
	movl	%ebx, %eax
	rep stosl
	leal	-1312(%ebp), %edx
	movl	$0, %eax
	movl	$144, %ecx
	movl	%edx, %edi
	rep stosl
	leal	-3156(%ebp), %edx
	movl	$0, %eax
	movl	$144, %ecx
	movl	%edx, %edi
	rep stosl
	movl	84(%ebp), %eax
	movl	$576, %ecx
	movl	$0, %ebx
	movl	%ebx, (%eax)
	movl	%ebx, -4(%eax,%ecx)
	leal	4(%eax), %edx
	andl	$-4, %edx
	subl	%edx, %eax
	addl	%eax, %ecx
	andl	$-4, %ecx
	shrl	$2, %ecx
	movl	%edx, %edi
	movl	%ebx, %eax
	rep stosl
	movl	88(%ebp), %eax
	movl	$576, %ecx
	movl	$0, %ebx
	movl	%ebx, (%eax)
	movl	%ebx, -4(%eax,%ecx)
	leal	4(%eax), %edx
	andl	$-4, %edx
	subl	%edx, %eax
	addl	%eax, %ecx
	andl	$-4, %ecx
	shrl	$2, %ecx
	movl	%edx, %edi
	movl	%ebx, %eax
	rep stosl
	movl	92(%ebp), %eax
	movl	$576, %ecx
	movl	$0, %ebx
	movl	%ebx, (%eax)
	movl	%ebx, -4(%eax,%ecx)
	leal	4(%eax), %edx
	andl	$-4, %edx
	subl	%edx, %eax
	addl	%eax, %ecx
	andl	$-4, %ecx
	shrl	$2, %ecx
	movl	%edx, %edi
	movl	%ebx, %eax
	rep stosl
	movl	96(%ebp), %eax
	movl	$576, %ecx
	movl	$0, %ebx
	movl	%ebx, (%eax)
	movl	%ebx, -4(%eax,%ecx)
	leal	4(%eax), %edx
	andl	$-4, %edx
	subl	%edx, %eax
	addl	%eax, %ecx
	andl	$-4, %ecx
	shrl	$2, %ecx
	movl	%edx, %edi
	movl	%ebx, %eax
	rep stosl
	movl	100(%ebp), %eax
	movl	$576, %ecx
	movl	$0, %ebx
	movl	%ebx, (%eax)
	movl	%ebx, -4(%eax,%ecx)
	leal	4(%eax), %edx
	andl	$-4, %edx
	subl	%edx, %eax
	addl	%eax, %ecx
	andl	$-4, %ecx
	shrl	$2, %ecx
	movl	%edx, %edi
	movl	%ebx, %eax
	rep stosl
	movl	124(%ebp), %eax
	movl	$576, %ecx
	movl	$0, %ebx
	movl	%ebx, (%eax)
	movl	%ebx, -4(%eax,%ecx)
	leal	4(%eax), %edx
	andl	$-4, %edx
	subl	%edx, %eax
	addl	%eax, %ecx
	andl	$-4, %ecx
	shrl	$2, %ecx
	movl	%edx, %edi
	movl	%ebx, %eax
	rep stosl
	movl	128(%ebp), %eax
	movl	$576, %ecx
	movl	$0, %ebx
	movl	%ebx, (%eax)
	movl	%ebx, -4(%eax,%ecx)
	leal	4(%eax), %edx
	andl	$-4, %edx
	subl	%edx, %eax
	addl	%eax, %ecx
	andl	$-4, %ecx
	shrl	$2, %ecx
	movl	%edx, %edi
	movl	%ebx, %eax
	rep stosl
	movl	$1, %eax
L9:
	cmpl	$12, %eax
	jg	L8
	leal	-1(%eax), %edx
	flds	LC3
	fstps	-3308(%ebp,%edx,4)
	addl	$1, %eax
	jmp	L9
L8:
	leal	-688(%ebp), %edx
	movl	$0, %eax
	movl	$12, %ecx
	movl	%edx, %edi
	rep stosl
	leal	-1904(%ebp), %edx
	movl	$0, %eax
	movl	$12, %ecx
	movl	%edx, %edi
	rep stosl
	movl	$0, -24(%ebp)
	fldz
	movl	$1, %eax
L11:
	cmpl	$12, %eax
	jg	L10
	leal	-1(%eax), %ecx
	movl	32(%ebp), %edx
	flds	(%edx,%ecx,4)
	leal	-1(%eax), %edx
	flds	-1560(%ebp,%edx,4)
	fmulp	%st, %st(1)
	faddp	%st, %st(1)
	addl	$1, %eax
	jmp	L11
L10:
	fstps	-36(%ebp)
	fldz
	movl	$1, %eax
L13:
	cmpl	$12, %eax
	jg	L12
	leal	-1(%eax), %ecx
	movl	40(%ebp), %edx
	flds	(%edx,%ecx,4)
	leal	-1(%eax), %edx
	flds	-1560(%ebp,%edx,4)
	fmulp	%st, %st(1)
	faddp	%st, %st(1)
	addl	$1, %eax
	jmp	L13
L12:
	fstps	-40(%ebp)
	fldz
	movl	$1, %eax
L15:
	cmpl	$12, %eax
	jg	L14
	leal	-1(%eax), %ecx
	movl	36(%ebp), %edx
	flds	(%edx,%ecx,4)
	leal	-1(%eax), %edx
	flds	-1560(%ebp,%edx,4)
	fmulp	%st, %st(1)
	faddp	%st, %st(1)
	addl	$1, %eax
	jmp	L15
L14:
	fstps	-44(%ebp)
	flds	-36(%ebp)
	fadds	-40(%ebp)
	fadds	-44(%ebp)
	fstps	-12(%ebp)
L40:
	addl	$1, -24(%ebp)
	movl	-24(%ebp), %ecx
	movl	$715827883, %edx
	movl	%ecx, %eax
	imull	%edx
	sarl	%edx
	movl	%ecx, %eax
	sarl	$31, %eax
	subl	%eax, %edx
	movl	%edx, %eax
	addl	%eax, %eax
	addl	%edx, %eax
	sall	$2, %eax
	subl	%eax, %ecx
	movl	%ecx, %eax
	movl	%eax, -16(%ebp)
	cmpl	$0, -16(%ebp)
	jne	L16
	movl	$12, -16(%ebp)
L16:
	movl	-16(%ebp), %eax
	movl	%eax, -1464(%ebp)
	movl	-16(%ebp), %eax
	leal	-1(%eax), %edx
	movl	20(%ebp), %eax
	flds	(%eax,%edx,4)
	flds	LC3
	fmulp	%st, %st(1)
	fstps	-2580(%ebp)
	movl	-16(%ebp), %eax
	leal	-1(%eax), %edx
	movl	48(%ebp), %eax
	flds	(%eax,%edx,4)
	fstps	-3164(%ebp)
	movl	-16(%ebp), %eax
	leal	-1(%eax), %edx
	movl	16(%ebp), %eax
	flds	(%eax,%edx,4)
	fstps	-3160(%ebp)
	movl	-16(%ebp), %eax
	leal	-1(%eax), %edx
	movl	12(%ebp), %eax
	flds	(%eax,%edx,4)
	fstps	-1612(%ebp)
	movl	-16(%ebp), %eax
	leal	-1(%eax), %edx
	movl	24(%ebp), %eax
	flds	(%eax,%edx,4)
	flds	LC5
	fmulp	%st, %st(1)
	flds	LC6
	fdivrp	%st, %st(1)
	fstps	-1412(%ebp)
	movl	-16(%ebp), %eax
	leal	-1(%eax), %edx
	movl	28(%ebp), %eax
	flds	(%eax,%edx,4)
	flds	LC1
	fdivrp	%st, %st(1)
	fstps	-1808(%ebp)
	fldz
	fstps	-592(%ebp)
	leal	-3212(%ebp), %edx
	movl	$0, %eax
	movl	$12, %ecx
	movl	%edx, %edi
	rep stosl
	leal	-640(%ebp), %edx
	movl	$0, %eax
	movl	$12, %ecx
	movl	%edx, %edi
	rep stosl
	leal	-1856(%ebp), %edx
	movl	$0, %eax
	movl	$12, %ecx
	movl	%edx, %edi
	rep stosl
	leal	-2000(%ebp), %edx
	movl	$0, %eax
	movl	$12, %ecx
	movl	%edx, %edi
	rep stosl
	leal	-1756(%ebp), %edx
	movl	$0, %eax
	movl	$12, %ecx
	movl	%edx, %edi
	rep stosl
	leal	-588(%ebp), %edx
	movl	$0, %eax
	movl	$12, %ecx
	movl	%edx, %edi
	rep stosl
	leal	-1608(%ebp), %edx
	movl	$0, %eax
	movl	$12, %ecx
	movl	%edx, %edi
	rep stosl
	leal	-108(%ebp), %edx
	movl	$0, %eax
	movl	$12, %ecx
	movl	%edx, %edi
	rep stosl
	leal	-1512(%ebp), %edx
	movl	$0, %eax
	movl	$12, %ecx
	movl	%edx, %edi
	rep stosl
	leal	-1460(%ebp), %edx
	movl	$0, %eax
	movl	$12, %ecx
	movl	%edx, %edi
	rep stosl
	leal	-444(%ebp), %edx
	movl	$0, %eax
	movl	$12, %ecx
	movl	%edx, %edi
	rep stosl
	leal	-492(%ebp), %edx
	movl	$0, %eax
	movl	$12, %ecx
	movl	%edx, %edi
	rep stosl
	leal	-1408(%ebp), %edx
	movl	$0, %eax
	movl	$12, %ecx
	movl	%edx, %edi
	rep stosl
	leal	-1660(%ebp), %edx
	movl	$0, %eax
	movl	$12, %ecx
	movl	%edx, %edi
	rep stosl
	leal	-1804(%ebp), %edx
	movl	$0, %eax
	movl	$12, %ecx
	movl	%edx, %edi
	rep stosl
	leal	-1708(%ebp), %edx
	movl	$0, %eax
	movl	$12, %ecx
	movl	%edx, %edi
	rep stosl
	leal	-396(%ebp), %edx
	movl	$0, %eax
	movl	$12, %ecx
	movl	%edx, %edi
	rep stosl
	leal	-204(%ebp), %edx
	movl	$0, %eax
	movl	$12, %ecx
	movl	%edx, %edi
	rep stosl
	leal	-300(%ebp), %edx
	movl	$0, %eax
	movl	$12, %ecx
	movl	%edx, %edi
	rep stosl
	leal	-736(%ebp), %edx
	movl	$0, %eax
	movl	$12, %ecx
	movl	%edx, %edi
	rep stosl
	leal	-3404(%ebp), %edx
	movl	$0, %eax
	movl	$12, %ecx
	movl	%edx, %edi
	rep stosl
	leal	-3404(%ebp), %edx
	movl	$0, %eax
	movl	$12, %ecx
	movl	%edx, %edi
	rep stosl
	leal	-540(%ebp), %eax
	movl	%eax, 144(%esp)
	leal	-3404(%ebp), %eax
	movl	%eax, 140(%esp)
	leal	-736(%ebp), %eax
	movl	%eax, 136(%esp)
	leal	-300(%ebp), %eax
	movl	%eax, 132(%esp)
	leal	-204(%ebp), %eax
	movl	%eax, 128(%esp)
	leal	-396(%ebp), %eax
	movl	%eax, 124(%esp)
	leal	-1708(%ebp), %eax
	movl	%eax, 120(%esp)
	leal	-1804(%ebp), %eax
	movl	%eax, 116(%esp)
	leal	-1660(%ebp), %eax
	movl	%eax, 112(%esp)
	leal	-1408(%ebp), %eax
	movl	%eax, 108(%esp)
	leal	-492(%ebp), %eax
	movl	%eax, 104(%esp)
	leal	-444(%ebp), %eax
	movl	%eax, 100(%esp)
	leal	-1460(%ebp), %eax
	movl	%eax, 96(%esp)
	leal	-1512(%ebp), %eax
	movl	%eax, 92(%esp)
	leal	-108(%ebp), %eax
	movl	%eax, 88(%esp)
	leal	-1608(%ebp), %eax
	movl	%eax, 84(%esp)
	leal	-592(%ebp), %eax
	movl	%eax, 80(%esp)
	leal	-588(%ebp), %eax
	movl	%eax, 76(%esp)
	leal	-1756(%ebp), %eax
	movl	%eax, 72(%esp)
	leal	-2000(%ebp), %eax
	movl	%eax, 68(%esp)
	leal	-1856(%ebp), %eax
	movl	%eax, 64(%esp)
	leal	-640(%ebp), %eax
	movl	%eax, 60(%esp)
	leal	-3212(%ebp), %eax
	movl	%eax, 56(%esp)
	leal	-252(%ebp), %eax
	movl	%eax, 52(%esp)
	leal	-156(%ebp), %eax
	movl	%eax, 48(%esp)
	leal	-348(%ebp), %eax
	movl	%eax, 44(%esp)
	leal	-1808(%ebp), %eax
	movl	%eax, 40(%esp)
	leal	-1412(%ebp), %eax
	movl	%eax, 36(%esp)
	leal	-2580(%ebp), %eax
	movl	%eax, 32(%esp)
	leal	-1612(%ebp), %eax
	movl	%eax, 28(%esp)
	leal	-3160(%ebp), %eax
	movl	%eax, 24(%esp)
	leal	-3164(%ebp), %eax
	movl	%eax, 20(%esp)
	leal	-1904(%ebp), %eax
	movl	%eax, 16(%esp)
	leal	-688(%ebp), %eax
	movl	%eax, 12(%esp)
	leal	-3308(%ebp), %eax
	movl	%eax, 8(%esp)
	leal	-1464(%ebp), %eax
	movl	%eax, 4(%esp)
	movl	8(%ebp), %eax
	movl	%eax, (%esp)
	call	___budget_caete_MOD_budget
	movl	-16(%ebp), %eax
	leal	-1(%eax), %edx
	flds	-592(%ebp)
	movl	44(%ebp), %eax
	fstps	(%eax,%edx,4)
	movl	$1, -32(%ebp)
	cmpl	$12, -32(%ebp)
	jg	L17
L18:
	movl	-16(%ebp), %edx
	movl	%edx, %eax
	addl	%eax, %eax
	addl	%edx, %eax
	sall	$2, %eax
	movl	%eax, %edx
	movl	-32(%ebp), %eax
	addl	%edx, %eax
	subl	$13, %eax
	movl	-32(%ebp), %edx
	subl	$1, %edx
	flds	-640(%ebp,%edx,4)
	movl	-32(%ebp), %edx
	subl	$1, %edx
	flds	-736(%ebp,%edx,4)
	flds	LC1
	fdivrp	%st, %st(1)
	fmulp	%st, %st(1)
	fstps	-1312(%ebp,%eax,4)
	movl	-16(%ebp), %edx
	movl	%edx, %eax
	addl	%eax, %eax
	addl	%edx, %eax
	sall	$2, %eax
	movl	%eax, %edx
	movl	-32(%ebp), %eax
	addl	%edx, %eax
	subl	$13, %eax
	movl	-32(%ebp), %edx
	subl	$1, %edx
	flds	-1856(%ebp,%edx,4)
	movl	-32(%ebp), %edx
	subl	$1, %edx
	flds	-736(%ebp,%edx,4)
	flds	LC1
	fdivrp	%st, %st(1)
	fmulp	%st, %st(1)
	fstps	-3156(%ebp,%eax,4)
	movl	-16(%ebp), %edx
	movl	%edx, %eax
	addl	%eax, %eax
	addl	%edx, %eax
	sall	$2, %eax
	movl	%eax, %edx
	movl	-32(%ebp), %eax
	addl	%edx, %eax
	leal	-13(%eax), %edx
	movl	-32(%ebp), %eax
	subl	$1, %eax
	flds	-3212(%ebp,%eax,4)
	movl	-32(%ebp), %eax
	subl	$1, %eax
	flds	-736(%ebp,%eax,4)
	flds	LC1
	fdivrp	%st, %st(1)
	fmulp	%st, %st(1)
	movl	92(%ebp), %eax
	fstps	(%eax,%edx,4)
	movl	-16(%ebp), %edx
	movl	%edx, %eax
	addl	%eax, %eax
	addl	%edx, %eax
	sall	$2, %eax
	movl	%eax, %edx
	movl	-32(%ebp), %eax
	addl	%edx, %eax
	subl	$13, %eax
	movl	-32(%ebp), %edx
	subl	$1, %edx
	flds	-2000(%ebp,%edx,4)
	movl	-32(%ebp), %edx
	subl	$1, %edx
	flds	-736(%ebp,%edx,4)
	flds	LC1
	fdivrp	%st, %st(1)
	fmulp	%st, %st(1)
	fstps	-2576(%ebp,%eax,4)
	movl	-16(%ebp), %edx
	movl	%edx, %eax
	addl	%eax, %eax
	addl	%edx, %eax
	sall	$2, %eax
	movl	%eax, %edx
	movl	-32(%ebp), %eax
	addl	%edx, %eax
	leal	-13(%eax), %edx
	movl	-32(%ebp), %eax
	subl	$1, %eax
	flds	-1756(%ebp,%eax,4)
	movl	84(%ebp), %eax
	fstps	(%eax,%edx,4)
	movl	-16(%ebp), %edx
	movl	%edx, %eax
	addl	%eax, %eax
	addl	%edx, %eax
	sall	$2, %eax
	movl	%eax, %edx
	movl	-32(%ebp), %eax
	addl	%edx, %eax
	leal	-13(%eax), %edx
	movl	-32(%ebp), %eax
	subl	$1, %eax
	flds	-588(%ebp,%eax,4)
	movl	88(%ebp), %eax
	fstps	(%eax,%edx,4)
	movl	-16(%ebp), %edx
	movl	%edx, %eax
	addl	%eax, %eax
	addl	%edx, %eax
	sall	$2, %eax
	movl	%eax, %edx
	movl	-32(%ebp), %eax
	addl	%edx, %eax
	leal	-13(%eax), %edx
	movl	-32(%ebp), %eax
	subl	$1, %eax
	flds	-1660(%ebp,%eax,4)
	movl	80(%ebp), %eax
	fstps	(%eax,%edx,4)
	movl	-16(%ebp), %edx
	movl	%edx, %eax
	addl	%eax, %eax
	addl	%edx, %eax
	sall	$2, %eax
	movl	%eax, %edx
	movl	-32(%ebp), %eax
	addl	%edx, %eax
	leal	-13(%eax), %edx
	movl	-32(%ebp), %eax
	subl	$1, %eax
	flds	-1460(%ebp,%eax,4)
	movl	64(%ebp), %eax
	fstps	(%eax,%edx,4)
	movl	-16(%ebp), %edx
	movl	%edx, %eax
	addl	%eax, %eax
	addl	%edx, %eax
	sall	$2, %eax
	movl	%eax, %edx
	movl	-32(%ebp), %eax
	addl	%edx, %eax
	leal	-13(%eax), %edx
	movl	-32(%ebp), %eax
	subl	$1, %eax
	flds	-1608(%ebp,%eax,4)
	movl	52(%ebp), %eax
	fstps	(%eax,%edx,4)
	movl	-16(%ebp), %edx
	movl	%edx, %eax
	addl	%eax, %eax
	addl	%edx, %eax
	sall	$2, %eax
	movl	%eax, %edx
	movl	-32(%ebp), %eax
	addl	%edx, %eax
	leal	-13(%eax), %edx
	movl	-32(%ebp), %eax
	subl	$1, %eax
	flds	-108(%ebp,%eax,4)
	movl	56(%ebp), %eax
	fstps	(%eax,%edx,4)
	movl	-16(%ebp), %edx
	movl	%edx, %eax
	addl	%eax, %eax
	addl	%edx, %eax
	sall	$2, %eax
	movl	%eax, %edx
	movl	-32(%ebp), %eax
	addl	%edx, %eax
	leal	-13(%eax), %edx
	movl	-32(%ebp), %eax
	subl	$1, %eax
	flds	-1512(%ebp,%eax,4)
	movl	60(%ebp), %eax
	fstps	(%eax,%edx,4)
	movl	-16(%ebp), %edx
	movl	%edx, %eax
	addl	%eax, %eax
	addl	%edx, %eax
	sall	$2, %eax
	movl	%eax, %edx
	movl	-32(%ebp), %eax
	addl	%edx, %eax
	leal	-13(%eax), %edx
	movl	-32(%ebp), %eax
	subl	$1, %eax
	flds	-444(%ebp,%eax,4)
	movl	68(%ebp), %eax
	fstps	(%eax,%edx,4)
	movl	-16(%ebp), %edx
	movl	%edx, %eax
	addl	%eax, %eax
	addl	%edx, %eax
	sall	$2, %eax
	movl	%eax, %edx
	movl	-32(%ebp), %eax
	addl	%edx, %eax
	leal	-13(%eax), %edx
	movl	-32(%ebp), %eax
	subl	$1, %eax
	flds	-492(%ebp,%eax,4)
	movl	72(%ebp), %eax
	fstps	(%eax,%edx,4)
	movl	-16(%ebp), %edx
	movl	%edx, %eax
	addl	%eax, %eax
	addl	%edx, %eax
	sall	$2, %eax
	movl	%eax, %edx
	movl	-32(%ebp), %eax
	addl	%edx, %eax
	leal	-13(%eax), %edx
	movl	-32(%ebp), %eax
	subl	$1, %eax
	flds	-1408(%ebp,%eax,4)
	movl	76(%ebp), %eax
	fstps	(%eax,%edx,4)
	movl	-16(%ebp), %edx
	movl	%edx, %eax
	addl	%eax, %eax
	addl	%edx, %eax
	sall	$2, %eax
	movl	%eax, %edx
	movl	-32(%ebp), %eax
	addl	%edx, %eax
	leal	-13(%eax), %edx
	movl	-32(%ebp), %eax
	subl	$1, %eax
	flds	-1804(%ebp,%eax,4)
	movl	96(%ebp), %eax
	fstps	(%eax,%edx,4)
	movl	-16(%ebp), %edx
	movl	%edx, %eax
	addl	%eax, %eax
	addl	%edx, %eax
	sall	$2, %eax
	movl	%eax, %edx
	movl	-32(%ebp), %eax
	addl	%edx, %eax
	leal	-13(%eax), %edx
	movl	-32(%ebp), %eax
	subl	$1, %eax
	flds	-1708(%ebp,%eax,4)
	movl	100(%ebp), %eax
	fstps	(%eax,%edx,4)
	movl	-16(%ebp), %edx
	movl	%edx, %eax
	addl	%eax, %eax
	addl	%edx, %eax
	sall	$2, %eax
	movl	%eax, %edx
	movl	-32(%ebp), %eax
	addl	%edx, %eax
	leal	-13(%eax), %edx
	movl	-32(%ebp), %eax
	subl	$1, %eax
	flds	-3404(%ebp,%eax,4)
	movl	124(%ebp), %eax
	fstps	(%eax,%edx,4)
	movl	-16(%ebp), %edx
	movl	%edx, %eax
	addl	%eax, %eax
	addl	%edx, %eax
	sall	$2, %eax
	movl	%eax, %edx
	movl	-32(%ebp), %eax
	addl	%edx, %eax
	leal	-13(%eax), %edx
	movl	-32(%ebp), %eax
	subl	$1, %eax
	flds	-540(%ebp,%eax,4)
	movl	128(%ebp), %eax
	fstps	(%eax,%edx,4)
	cmpl	$12, -32(%ebp)
	sete	%al
	movzbl	%al, %eax
	addl	$1, -32(%ebp)
	testl	%eax, %eax
	jne	L17
	jmp	L18
L17:
	movl	-3212(%ebp), %eax
	movl	%eax, -3308(%ebp)
	movl	-3208(%ebp), %eax
	movl	%eax, -3304(%ebp)
	movl	-3204(%ebp), %eax
	movl	%eax, -3300(%ebp)
	movl	-3200(%ebp), %eax
	movl	%eax, -3296(%ebp)
	movl	-3196(%ebp), %eax
	movl	%eax, -3292(%ebp)
	movl	-3192(%ebp), %eax
	movl	%eax, -3288(%ebp)
	movl	-3188(%ebp), %eax
	movl	%eax, -3284(%ebp)
	movl	-3184(%ebp), %eax
	movl	%eax, -3280(%ebp)
	movl	-3180(%ebp), %eax
	movl	%eax, -3276(%ebp)
	movl	-3176(%ebp), %eax
	movl	%eax, -3272(%ebp)
	movl	-3172(%ebp), %eax
	movl	%eax, -3268(%ebp)
	movl	-3168(%ebp), %eax
	movl	%eax, -3264(%ebp)
	movl	-640(%ebp), %eax
	movl	%eax, -688(%ebp)
	movl	-636(%ebp), %eax
	movl	%eax, -684(%ebp)
	movl	-632(%ebp), %eax
	movl	%eax, -680(%ebp)
	movl	-628(%ebp), %eax
	movl	%eax, -676(%ebp)
	movl	-624(%ebp), %eax
	movl	%eax, -672(%ebp)
	movl	-620(%ebp), %eax
	movl	%eax, -668(%ebp)
	movl	-616(%ebp), %eax
	movl	%eax, -664(%ebp)
	movl	-612(%ebp), %eax
	movl	%eax, -660(%ebp)
	movl	-608(%ebp), %eax
	movl	%eax, -656(%ebp)
	movl	-604(%ebp), %eax
	movl	%eax, -652(%ebp)
	movl	-600(%ebp), %eax
	movl	%eax, -648(%ebp)
	movl	-596(%ebp), %eax
	movl	%eax, -644(%ebp)
	movl	-1856(%ebp), %eax
	movl	%eax, -1904(%ebp)
	movl	-1852(%ebp), %eax
	movl	%eax, -1900(%ebp)
	movl	-1848(%ebp), %eax
	movl	%eax, -1896(%ebp)
	movl	-1844(%ebp), %eax
	movl	%eax, -1892(%ebp)
	movl	-1840(%ebp), %eax
	movl	%eax, -1888(%ebp)
	movl	-1836(%ebp), %eax
	movl	%eax, -1884(%ebp)
	movl	-1832(%ebp), %eax
	movl	%eax, -1880(%ebp)
	movl	-1828(%ebp), %eax
	movl	%eax, -1876(%ebp)
	movl	-1824(%ebp), %eax
	movl	%eax, -1872(%ebp)
	movl	-1820(%ebp), %eax
	movl	%eax, -1868(%ebp)
	movl	-1816(%ebp), %eax
	movl	%eax, -1864(%ebp)
	movl	-1812(%ebp), %eax
	movl	%eax, -1860(%ebp)
	movl	-396(%ebp), %eax
	movl	%eax, -348(%ebp)
	movl	-392(%ebp), %eax
	movl	%eax, -344(%ebp)
	movl	-388(%ebp), %eax
	movl	%eax, -340(%ebp)
	movl	-384(%ebp), %eax
	movl	%eax, -336(%ebp)
	movl	-380(%ebp), %eax
	movl	%eax, -332(%ebp)
	movl	-376(%ebp), %eax
	movl	%eax, -328(%ebp)
	movl	-372(%ebp), %eax
	movl	%eax, -324(%ebp)
	movl	-368(%ebp), %eax
	movl	%eax, -320(%ebp)
	movl	-364(%ebp), %eax
	movl	%eax, -316(%ebp)
	movl	-360(%ebp), %eax
	movl	%eax, -312(%ebp)
	movl	-356(%ebp), %eax
	movl	%eax, -308(%ebp)
	movl	-352(%ebp), %eax
	movl	%eax, -304(%ebp)
	movl	-204(%ebp), %eax
	movl	%eax, -156(%ebp)
	movl	-200(%ebp), %eax
	movl	%eax, -152(%ebp)
	movl	-196(%ebp), %eax
	movl	%eax, -148(%ebp)
	movl	-192(%ebp), %eax
	movl	%eax, -144(%ebp)
	movl	-188(%ebp), %eax
	movl	%eax, -140(%ebp)
	movl	-184(%ebp), %eax
	movl	%eax, -136(%ebp)
	movl	-180(%ebp), %eax
	movl	%eax, -132(%ebp)
	movl	-176(%ebp), %eax
	movl	%eax, -128(%ebp)
	movl	-172(%ebp), %eax
	movl	%eax, -124(%ebp)
	movl	-168(%ebp), %eax
	movl	%eax, -120(%ebp)
	movl	-164(%ebp), %eax
	movl	%eax, -116(%ebp)
	movl	-160(%ebp), %eax
	movl	%eax, -112(%ebp)
	movl	-300(%ebp), %eax
	movl	%eax, -252(%ebp)
	movl	-296(%ebp), %eax
	movl	%eax, -248(%ebp)
	movl	-292(%ebp), %eax
	movl	%eax, -244(%ebp)
	movl	-288(%ebp), %eax
	movl	%eax, -240(%ebp)
	movl	-284(%ebp), %eax
	movl	%eax, -236(%ebp)
	movl	-280(%ebp), %eax
	movl	%eax, -232(%ebp)
	movl	-276(%ebp), %eax
	movl	%eax, -228(%ebp)
	movl	-272(%ebp), %eax
	movl	%eax, -224(%ebp)
	movl	-268(%ebp), %eax
	movl	%eax, -220(%ebp)
	movl	-264(%ebp), %eax
	movl	%eax, -216(%ebp)
	movl	-260(%ebp), %eax
	movl	%eax, -212(%ebp)
	movl	-256(%ebp), %eax
	movl	%eax, -208(%ebp)
	cmpl	$12, -16(%ebp)
	jne	L19
	movl	104(%ebp), %eax
	leal	-396(%ebp), %edx
	movl	(%edx), %ecx
	movl	%ecx, (%eax)
	movl	4(%edx), %ecx
	movl	%ecx, 4(%eax)
	movl	8(%edx), %ecx
	movl	%ecx, 8(%eax)
	movl	12(%edx), %ecx
	movl	%ecx, 12(%eax)
	movl	16(%edx), %ecx
	movl	%ecx, 16(%eax)
	movl	20(%edx), %ecx
	movl	%ecx, 20(%eax)
	movl	24(%edx), %ecx
	movl	%ecx, 24(%eax)
	movl	28(%edx), %ecx
	movl	%ecx, 28(%eax)
	movl	32(%edx), %ecx
	movl	%ecx, 32(%eax)
	movl	36(%edx), %ecx
	movl	%ecx, 36(%eax)
	movl	40(%edx), %ecx
	movl	%ecx, 40(%eax)
	movl	44(%edx), %edx
	movl	%edx, 44(%eax)
	movl	108(%ebp), %eax
	leal	-204(%ebp), %edx
	movl	(%edx), %ecx
	movl	%ecx, (%eax)
	movl	4(%edx), %ecx
	movl	%ecx, 4(%eax)
	movl	8(%edx), %ecx
	movl	%ecx, 8(%eax)
	movl	12(%edx), %ecx
	movl	%ecx, 12(%eax)
	movl	16(%edx), %ecx
	movl	%ecx, 16(%eax)
	movl	20(%edx), %ecx
	movl	%ecx, 20(%eax)
	movl	24(%edx), %ecx
	movl	%ecx, 24(%eax)
	movl	28(%edx), %ecx
	movl	%ecx, 28(%eax)
	movl	32(%edx), %ecx
	movl	%ecx, 32(%eax)
	movl	36(%edx), %ecx
	movl	%ecx, 36(%eax)
	movl	40(%edx), %ecx
	movl	%ecx, 40(%eax)
	movl	44(%edx), %edx
	movl	%edx, 44(%eax)
	movl	112(%ebp), %eax
	leal	-300(%ebp), %edx
	movl	(%edx), %ecx
	movl	%ecx, (%eax)
	movl	4(%edx), %ecx
	movl	%ecx, 4(%eax)
	movl	8(%edx), %ecx
	movl	%ecx, 8(%eax)
	movl	12(%edx), %ecx
	movl	%ecx, 12(%eax)
	movl	16(%edx), %ecx
	movl	%ecx, 16(%eax)
	movl	20(%edx), %ecx
	movl	%ecx, 20(%eax)
	movl	24(%edx), %ecx
	movl	%ecx, 24(%eax)
	movl	28(%edx), %ecx
	movl	%ecx, 28(%eax)
	movl	32(%edx), %ecx
	movl	%ecx, 32(%eax)
	movl	36(%edx), %ecx
	movl	%ecx, 36(%eax)
	movl	40(%edx), %ecx
	movl	%ecx, 40(%eax)
	movl	44(%edx), %edx
	movl	%edx, 44(%eax)
	movl	116(%ebp), %eax
	leal	-736(%ebp), %edx
	movl	(%edx), %ecx
	movl	%ecx, (%eax)
	movl	4(%edx), %ecx
	movl	%ecx, 4(%eax)
	movl	8(%edx), %ecx
	movl	%ecx, 8(%eax)
	movl	12(%edx), %ecx
	movl	%ecx, 12(%eax)
	movl	16(%edx), %ecx
	movl	%ecx, 16(%eax)
	movl	20(%edx), %ecx
	movl	%ecx, 20(%eax)
	movl	24(%edx), %ecx
	movl	%ecx, 24(%eax)
	movl	28(%edx), %ecx
	movl	%ecx, 28(%eax)
	movl	32(%edx), %ecx
	movl	%ecx, 32(%eax)
	movl	36(%edx), %ecx
	movl	%ecx, 36(%eax)
	movl	40(%edx), %ecx
	movl	%ecx, 40(%eax)
	movl	44(%edx), %edx
	movl	%edx, 44(%eax)
L19:
	cmpl	$12, -16(%ebp)
	jne	L40
	fldz
	fstps	-48(%ebp)
	movl	-16(%ebp), %eax
	subl	$1, %eax
	fldz
	fstps	-3356(%ebp,%eax,4)
	movl	-16(%ebp), %eax
	subl	$1, %eax
	fldz
	fstps	-1360(%ebp,%eax,4)
	movl	$1, %eax
L22:
	cmpl	$12, %eax
	jg	L21
	leal	-1(%eax), %edx
	leal	-1(%eax), %ecx
	flds	-736(%ebp,%ecx,4)
	flds	LC1
	fdivrp	%st, %st(1)
	fstps	-1952(%ebp,%edx,4)
	addl	$1, %eax
	jmp	L22
L21:
	fldz
	movl	$1, %eax
L24:
	cmpl	$12, %eax
	jg	L23
	leal	-1(%eax), %edx
	flds	-396(%ebp,%edx,4)
	leal	-1(%eax), %edx
	flds	-1952(%ebp,%edx,4)
	fmulp	%st, %st(1)
	faddp	%st, %st(1)
	addl	$1, %eax
	jmp	L24
L23:
	fldz
	movl	$1, %eax
L26:
	cmpl	$12, %eax
	jg	L25
	leal	-1(%eax), %edx
	flds	-300(%ebp,%edx,4)
	leal	-1(%eax), %edx
	flds	-1952(%ebp,%edx,4)
	fmulp	%st, %st(1)
	faddp	%st, %st(1)
	addl	$1, %eax
	jmp	L26
L25:
	fldz
	movl	$1, %eax
L28:
	cmpl	$12, %eax
	jg	L27
	leal	-1(%eax), %edx
	flds	-204(%ebp,%edx,4)
	leal	-1(%eax), %edx
	flds	-1952(%ebp,%edx,4)
	fmulp	%st, %st(1)
	faddp	%st, %st(1)
	addl	$1, %eax
	jmp	L28
L27:
	fxch	%st(1)
	faddp	%st, %st(2)
	faddp	%st, %st(1)
	fstps	-48(%ebp)
	movl	$1, -32(%ebp)
	cmpl	$12, -32(%ebp)
	jg	L29
L30:
	movl	-16(%ebp), %eax
	leal	-1(%eax), %ecx
	movl	-16(%ebp), %eax
	subl	$1, %eax
	flds	-3356(%ebp,%eax,4)
	movl	-16(%ebp), %edx
	movl	%edx, %eax
	addl	%eax, %eax
	addl	%edx, %eax
	sall	$2, %eax
	movl	%eax, %edx
	movl	-32(%ebp), %eax
	addl	%edx, %eax
	leal	-13(%eax), %edx
	movl	92(%ebp), %eax
	flds	(%eax,%edx,4)
	faddp	%st, %st(1)
	fstps	-3356(%ebp,%ecx,4)
	movl	-16(%ebp), %eax
	leal	-1(%eax), %ecx
	movl	-16(%ebp), %eax
	subl	$1, %eax
	flds	-1360(%ebp,%eax,4)
	movl	-16(%ebp), %edx
	movl	%edx, %eax
	addl	%eax, %eax
	addl	%edx, %eax
	sall	$2, %eax
	movl	%eax, %edx
	movl	-32(%ebp), %eax
	addl	%edx, %eax
	subl	$13, %eax
	flds	-1312(%ebp,%eax,4)
	faddp	%st, %st(1)
	fstps	-1360(%ebp,%ecx,4)
	cmpl	$12, -32(%ebp)
	sete	%al
	movzbl	%al, %eax
	addl	$1, -32(%ebp)
	testl	%eax, %eax
	jne	L29
	jmp	L30
L29:
	movl	$0, -28(%ebp)
	movl	$1, -20(%ebp)
	cmpl	$12, -20(%ebp)
	jg	L31
L34:
	movl	-20(%ebp), %eax
	subl	$1, %eax
	flds	-3356(%ebp,%eax,4)
	movl	-20(%ebp), %eax
	subl	$1, %eax
	flds	-1360(%ebp,%eax,4)
	faddp	%st, %st(1)
	fstps	-52(%ebp)
	movl	-20(%ebp), %eax
	subl	$1, %eax
	flds	-3260(%ebp,%eax,4)
	flds	-52(%ebp)
	fsubp	%st, %st(1)
	flds	LC7
	fdivrp	%st, %st(1)
	fstps	-56(%ebp)
	flds	-56(%ebp)
	fabs
	flds	LC8
	fxch	%st(1)
	fucomip	%st(1), %st
	fstp	%st(0)
	jbe	L32
	addl	$1, -28(%ebp)
L32:
	cmpl	$12, -20(%ebp)
	sete	%al
	movzbl	%al, %eax
	addl	$1, -20(%ebp)
	testl	%eax, %eax
	jne	L31
	jmp	L34
L31:
	flds	-48(%ebp)
	fabs
	flds	-12(%ebp)
	fabs
	fsubrp	%st, %st(1)
	fabs
	fstps	-60(%ebp)
	flds	-60(%ebp)
	flds	LC9
	fxch	%st(1)
	fucomip	%st(1), %st
	fstp	%st(0)
	jbe	L35
	movl	$1, -28(%ebp)
	flds	-48(%ebp)
	fstps	-12(%ebp)
L35:
	cmpl	$0, -28(%ebp)
	je	L43
	movl	$1, -20(%ebp)
	cmpl	$12, -20(%ebp)
	jg	L40
L38:
	movl	-20(%ebp), %eax
	subl	$1, %eax
	movl	-20(%ebp), %edx
	subl	$1, %edx
	flds	-3356(%ebp,%edx,4)
	movl	-20(%ebp), %edx
	subl	$1, %edx
	flds	-1360(%ebp,%edx,4)
	faddp	%st, %st(1)
	fstps	-3260(%ebp,%eax,4)
	cmpl	$12, -20(%ebp)
	sete	%al
	movzbl	%al, %eax
	addl	$1, -20(%ebp)
	testl	%eax, %eax
	jne	L40
	jmp	L38
L43:
	nop
	nop
	addl	$3568, %esp
	popl	%ebx
	.cfi_restore 3
	popl	%edi
	.cfi_restore 7
	popl	%ebp
	.cfi_restore 5
	.cfi_def_cfa 4, 4
	ret
	.cfi_endproc
LFE0:
	.section .rdata,"dr"
	.align 4
LC0:
	.long	1034594987
	.align 4
LC1:
	.long	1120403456
	.align 4
LC3:
	.long	1008981770
	.align 4
LC5:
	.long	1060320051
	.align 4
LC6:
	.long	1213522944
	.align 4
LC7:
	.long	1140457472
	.align 4
LC8:
	.long	981668463
	.align 4
LC9:
	.long	1028443341
	.ident	"GCC: (GNU) 6.4.0"
	.def	___water_MOD_soil_temp_sub;	.scl	2;	.type	32;	.endef
	.def	___budget_caete_MOD_budget;	.scl	2;	.type	32;	.endef
